target datalayout = "e-m:e-p270:32:32-p271:32:32-p272:64:64-i64:64-i128:128-f80:128-n8:16:32:64-S128"
target triple = "x86_64-pc-linux-gnu"

%struct.ARKodeMRIStepMemRec = type { ptr, ptr, i32, i32, i32, i32, i32, ptr, ptr, i32, i32, i32, ptr, i32, i32, i32, i32, i32, ptr, ptr, ptr, ptr, ptr, ptr, ptr, i32, ptr, i32, ptr, double, double, double, double, i32, double, double, double, double, double, double, i32, i64, i32, i32, i32, ptr, ptr, ptr, ptr, ptr, ptr, ptr, ptr, ptr, double, double, double, i64, i64, i64, i64, i64, i64, i32, i32, i32, double, double, ptr, i32, ptr, ptr }
%struct.ARKodeMemRec = type { ptr, double, ptr, i32, i32, double, double, ptr, i32, double, ptr, i32, i32, ptr, ptr, i32, ptr, ptr, i32, ptr, ptr, ptr, ptr, ptr, ptr, ptr, ptr, ptr, ptr, ptr, ptr, ptr, ptr, ptr, i32, ptr, ptr, i32, ptr, i32, ptr, ptr, ptr, ptr, ptr, ptr, ptr, ptr, ptr, ptr, ptr, ptr, ptr, ptr, ptr, ptr, ptr, ptr, ptr, ptr, ptr, ptr, ptr, ptr, ptr, ptr, i32, ptr, ptr, ptr, ptr, ptr, ptr, ptr, i32, ptr, ptr, ptr, i32, ptr, ptr, ptr, ptr, ptr, ptr, ptr, i32, i32, i32, i32, double, double, double, double, double, double, double, double, double, double, i32, ptr, i64, i32, i32, i32, i32, i64, i64, i32, i64, i64, i64, i64, i64, i64, i64, double, double, double, double, double, i32, double, double, i32, i32, i32, i32, i32, i32, i32, i32, ptr, i32, ptr, ptr, ptr, ptr, i32, i32, i32 }

@__func__.mriStep_GetNonlinearSystemData = private unnamed_addr constant [31 x i8] c"mriStep_GetNonlinearSystemData\00", align 1

; Function Attrs: nounwind uwtable
define i32 @mriStep_GetNonlinearSystemData(ptr noundef %0, ptr noundef %1, ptr noundef %2, ptr noundef %3, ptr noundef %4, ptr noundef %5, ptr noundef %6, ptr noundef %7) #0 {
  %9 = alloca i32, align 4
  %10 = alloca ptr, align 8
  %11 = alloca ptr, align 8
  %12 = alloca ptr, align 8
  %13 = alloca ptr, align 8
  %14 = alloca ptr, align 8
  %15 = alloca ptr, align 8
  %16 = alloca ptr, align 8
  %17 = alloca ptr, align 8
  %18 = alloca ptr, align 8
  %19 = alloca i32, align 4
  %20 = alloca i32, align 4
  store ptr %0, ptr %10, align 8, !tbaa !3
  store ptr %1, ptr %11, align 8, !tbaa !60
  store ptr %2, ptr %12, align 8, !tbaa !61
  store ptr %3, ptr %13, align 8, !tbaa !61
  store ptr %4, ptr %14, align 8, !tbaa !61
  store ptr %5, ptr %15, align 8, !tbaa !60
  store ptr %6, ptr %16, align 8, !tbaa !61
  store ptr %7, ptr %17, align 8, !tbaa !38
  call void @llvm.lifetime.start.p0(i64 8, ptr %18) #4
  call void @llvm.lifetime.start.p0(i64 4, ptr %19) #4
  %21 = load ptr, ptr %10, align 8, !tbaa !3
  %22 = call i32 @mriStep_AccessStepMem(ptr noundef %21, ptr noundef @__func__.mriStep_GetNonlinearSystemData, ptr noundef %18)
  store i32 %22, ptr %19, align 4, !tbaa !10
  %23 = load i32, ptr %19, align 4, !tbaa !10
  %24 = icmp ne i32 %23, 0
  br i1 %24, label %25, label %27

25:                                               ; preds = %8
  %26 = load i32, ptr %19, align 4, !tbaa !10
  store i32 %26, ptr %9, align 4
  store i32 1, ptr %20, align 4
  br label %68

27:                                               ; preds = %8
  %28 = load ptr, ptr %10, align 8, !tbaa !3
  %29 = getelementptr inbounds nuw %struct.ARKodeMemRec, ptr %28, i32 0, i32 98
  %30 = load double, ptr %29, align 8, !tbaa !46
  %31 = load ptr, ptr %11, align 8, !tbaa !60
  store double %30, ptr %31, align 8, !tbaa !52
  %32 = load ptr, ptr %18, align 8, !tbaa !20
  %33 = getelementptr inbounds nuw %struct.ARKodeMRIStepMemRec, ptr %32, i32 0, i32 23
  %34 = load ptr, ptr %33, align 8, !tbaa !39
  %35 = load ptr, ptr %12, align 8, !tbaa !61
  store ptr %34, ptr %35, align 8, !tbaa !37
  %36 = load ptr, ptr %10, align 8, !tbaa !3
  %37 = getelementptr inbounds nuw %struct.ARKodeMemRec, ptr %36, i32 0, i32 75
  %38 = load ptr, ptr %37, align 8, !tbaa !40
  %39 = load ptr, ptr %13, align 8, !tbaa !61
  store ptr %38, ptr %39, align 8, !tbaa !37
  %40 = load ptr, ptr %18, align 8, !tbaa !20
  %41 = getelementptr inbounds nuw %struct.ARKodeMRIStepMemRec, ptr %40, i32 0, i32 8
  %42 = load ptr, ptr %41, align 8, !tbaa !47
  %43 = load ptr, ptr %18, align 8, !tbaa !20
  %44 = getelementptr inbounds nuw %struct.ARKodeMRIStepMemRec, ptr %43, i32 0, i32 18
  %45 = load ptr, ptr %44, align 8, !tbaa !48
  %46 = load ptr, ptr %18, align 8, !tbaa !20
  %47 = getelementptr inbounds nuw %struct.ARKodeMRIStepMemRec, ptr %46, i32 0, i32 25
  %48 = load i32, ptr %47, align 8, !tbaa !49
  %49 = sext i32 %48 to i64
  %50 = getelementptr inbounds i32, ptr %45, i64 %49
  %51 = load i32, ptr %50, align 4, !tbaa !10
  %52 = sext i32 %51 to i64
  %53 = getelementptr inbounds ptr, ptr %42, i64 %52
  %54 = load ptr, ptr %53, align 8, !tbaa !37
  %55 = load ptr, ptr %14, align 8, !tbaa !61
  store ptr %54, ptr %55, align 8, !tbaa !37
  %56 = load ptr, ptr %18, align 8, !tbaa !20
  %57 = getelementptr inbounds nuw %struct.ARKodeMRIStepMemRec, ptr %56, i32 0, i32 29
  %58 = load double, ptr %57, align 8, !tbaa !54
  %59 = load ptr, ptr %15, align 8, !tbaa !60
  store double %58, ptr %59, align 8, !tbaa !52
  %60 = load ptr, ptr %18, align 8, !tbaa !20
  %61 = getelementptr inbounds nuw %struct.ARKodeMRIStepMemRec, ptr %60, i32 0, i32 22
  %62 = load ptr, ptr %61, align 8, !tbaa !53
  %63 = load ptr, ptr %16, align 8, !tbaa !61
  store ptr %62, ptr %63, align 8, !tbaa !37
  %64 = load ptr, ptr %10, align 8, !tbaa !3
  %65 = getelementptr inbounds nuw %struct.ARKodeMemRec, ptr %64, i32 0, i32 2
  %66 = load ptr, ptr %65, align 8, !tbaa !50
  %67 = load ptr, ptr %17, align 8, !tbaa !38
  store ptr %66, ptr %67, align 8, !tbaa !38
  store i32 0, ptr %9, align 4
  store i32 1, ptr %20, align 4
  br label %68

68:                                               ; preds = %27, %25
  call void @llvm.lifetime.end.p0(i64 4, ptr %19) #4
  call void @llvm.lifetime.end.p0(i64 8, ptr %18) #4
  %69 = load i32, ptr %9, align 4
  ret i32 %69
}