; Function Attrs: nounwind uwtable
define i32 @mriStep_GetNonlinearSystemData(ptr noundef %0, ptr noundef writeonly captures(none) %1, ptr noundef writeonly captures(none) %2, ptr noundef writeonly captures(none) %3, ptr noundef writeonly captures(none) %4, ptr noundef writeonly captures(none) %5, ptr noundef writeonly captures(none) %6, ptr noundef writeonly captures(none) %7) local_unnamed_addr #0 {
  %9 = alloca ptr, align 8
  call void @llvm.lifetime.start.p0(i64 8, ptr nonnull %9) #5
  %10 = call i32 @mriStep_AccessStepMem(ptr noundef %0, ptr noundef nonnull @__func__.mriStep_GetNonlinearSystemData, ptr noundef nonnull %9) #5
  %.not = icmp eq i32 %10, 0
  br i1 %.not, label %11, label %37

11:                                               ; preds = %8
  %12 = getelementptr inbounds nuw i8, ptr %0, i64 752
  %13 = load double, ptr %12, align 8, !tbaa !42
  store double %13, ptr %1, align 8, !tbaa !50
  %14 = load ptr, ptr %9, align 8, !tbaa !14
  %15 = getelementptr inbounds nuw i8, ptr %14, i64 144
  %16 = load ptr, ptr %15, align 8, !tbaa !33
  store ptr %16, ptr %2, align 8, !tbaa !47
  %17 = getelementptr inbounds nuw i8, ptr %0, i64 584
  %18 = load ptr, ptr %17, align 8, !tbaa !36
  store ptr %18, ptr %3, align 8, !tbaa !47
  %19 = getelementptr inbounds nuw i8, ptr %14, i64 48
  %20 = load ptr, ptr %19, align 8, !tbaa !43
  %21 = getelementptr inbounds nuw i8, ptr %14, i64 104
  %22 = load ptr, ptr %21, align 8, !tbaa !44
  %23 = getelementptr inbounds nuw i8, ptr %14, i64 160
  %24 = load i32, ptr %23, align 8, !tbaa !45
  %25 = sext i32 %24 to i64
  %26 = getelementptr inbounds i32, ptr %22, i64 %25
  %27 = load i32, ptr %26, align 4, !tbaa !46
  %28 = sext i32 %27 to i64
  %29 = getelementptr inbounds ptr, ptr %20, i64 %28
  %30 = load ptr, ptr %29, align 8, !tbaa !47
  store ptr %30, ptr %4, align 8, !tbaa !47
  %31 = getelementptr inbounds nuw i8, ptr %14, i64 192
  %32 = load double, ptr %31, align 8, !tbaa !52
  store double %32, ptr %5, align 8, !tbaa !50
  %33 = getelementptr inbounds nuw i8, ptr %14, i64 136
  %34 = load ptr, ptr %33, align 8, !tbaa !51
  store ptr %34, ptr %6, align 8, !tbaa !47
  %35 = getelementptr inbounds nuw i8, ptr %0, i64 16
  %36 = load ptr, ptr %35, align 8, !tbaa !48
  store ptr %36, ptr %7, align 8, !tbaa !58
  br label %37

37:                                               ; preds = %8, %11
  call void @llvm.lifetime.end.p0(i64 8, ptr nonnull %9) #5
  ret i32 %10
}